; ModuleID = '14/146.c'
source_filename = "14/146.c"
target datalayout = "e-m:e-p270:32:32-p271:32:32-p272:64:64-i64:64-f80:128-n8:16:32:64-S128"
target triple = "x86_64-pc-linux-gnu"

%struct.student = type { i32, i32 }

@.str = private unnamed_addr constant [3 x i8] c"%d\00", align 1
@.str.1 = private unnamed_addr constant [9 x i8] c"%d %d %d\00", align 1
@.str.2 = private unnamed_addr constant [7 x i8] c"%d %d\0A\00", align 1

; Function Attrs: noinline nounwind uwtable
define dso_local void @main() #0 {
  %1 = alloca [100000 x %struct.student], align 16
  %2 = alloca i32, align 4
  %3 = alloca i32, align 4
  %4 = alloca i32, align 4
  %5 = alloca i32, align 4
  %6 = alloca i32, align 4
  %7 = alloca i32, align 4
  %8 = alloca i32, align 4
  %9 = call i32 (i8*, ...) @__isoc99_scanf(i8* getelementptr inbounds ([3 x i8], [3 x i8]* @.str, i64 0, i64 0), i32* %2)
  store i32 0, i32* %3, align 4
  br label %10

10:                                               ; preds = %27, %0
  %11 = load i32, i32* %3, align 4
  %12 = load i32, i32* %2, align 4
  %13 = icmp slt i32 %11, %12
  br i1 %13, label %14, label %30

14:                                               ; preds = %10
  %15 = load i32, i32* %3, align 4
  %16 = sext i32 %15 to i64
  %17 = getelementptr inbounds [100000 x %struct.student], [100000 x %struct.student]* %1, i64 0, i64 %16
  %18 = getelementptr inbounds %struct.student, %struct.student* %17, i32 0, i32 0
  %19 = call i32 (i8*, ...) @__isoc99_scanf(i8* getelementptr inbounds ([9 x i8], [9 x i8]* @.str.1, i64 0, i64 0), i32* %18, i32* %6, i32* %7)
  %20 = load i32, i32* %6, align 4
  %21 = load i32, i32* %7, align 4
  %22 = add nsw i32 %20, %21
  %23 = load i32, i32* %3, align 4
  %24 = sext i32 %23 to i64
  %25 = getelementptr inbounds [100000 x %struct.student], [100000 x %struct.student]* %1, i64 0, i64 %24
  %26 = getelementptr inbounds %struct.student, %struct.student* %25, i32 0, i32 1
  store i32 %22, i32* %26, align 4
  br label %27

27:                                               ; preds = %14
  %28 = load i32, i32* %3, align 4
  %29 = add nsw i32 %28, 1
  store i32 %29, i32* %3, align 4
  br label %10

30:                                               ; preds = %10
  store i32 0, i32* %3, align 4
  br label %31

31:                                               ; preds = %103, %30
  %32 = load i32, i32* %3, align 4
  %33 = icmp slt i32 %32, 3
  br i1 %33, label %34, label %106

34:                                               ; preds = %31
  %35 = load i32, i32* %2, align 4
  %36 = load i32, i32* %3, align 4
  %37 = sub nsw i32 %35, %36
  %38 = sub nsw i32 %37, 1
  store i32 %38, i32* %4, align 4
  br label %39

39:                                               ; preds = %99, %34
  %40 = load i32, i32* %4, align 4
  %41 = icmp sgt i32 %40, 0
  br i1 %41, label %42, label %102

42:                                               ; preds = %39
  %43 = load i32, i32* %4, align 4
  %44 = sext i32 %43 to i64
  %45 = getelementptr inbounds [100000 x %struct.student], [100000 x %struct.student]* %1, i64 0, i64 %44
  %46 = getelementptr inbounds %struct.student, %struct.student* %45, i32 0, i32 1
  %47 = load i32, i32* %46, align 4
  %48 = load i32, i32* %4, align 4
  %49 = sub nsw i32 %48, 1
  %50 = sext i32 %49 to i64
  %51 = getelementptr inbounds [100000 x %struct.student], [100000 x %struct.student]* %1, i64 0, i64 %50
  %52 = getelementptr inbounds %struct.student, %struct.student* %51, i32 0, i32 1
  %53 = load i32, i32* %52, align 4
  %54 = icmp sgt i32 %47, %53
  br i1 %54, label %55, label %98

55:                                               ; preds = %42
  %56 = load i32, i32* %4, align 4
  %57 = sext i32 %56 to i64
  %58 = getelementptr inbounds [100000 x %struct.student], [100000 x %struct.student]* %1, i64 0, i64 %57
  %59 = getelementptr inbounds %struct.student, %struct.student* %58, i32 0, i32 1
  %60 = load i32, i32* %59, align 4
  store i32 %60, i32* %8, align 4
  %61 = load i32, i32* %4, align 4
  %62 = sub nsw i32 %61, 1
  %63 = sext i32 %62 to i64
  %64 = getelementptr inbounds [100000 x %struct.student], [100000 x %struct.student]* %1, i64 0, i64 %63
  %65 = getelementptr inbounds %struct.student, %struct.student* %64, i32 0, i32 1
  %66 = load i32, i32* %65, align 4
  %67 = load i32, i32* %4, align 4
  %68 = sext i32 %67 to i64
  %69 = getelementptr inbounds [100000 x %struct.student], [100000 x %struct.student]* %1, i64 0, i64 %68
  %70 = getelementptr inbounds %struct.student, %struct.student* %69, i32 0, i32 1
  store i32 %66, i32* %70, align 4
  %71 = load i32, i32* %8, align 4
  %72 = load i32, i32* %4, align 4
  %73 = sub nsw i32 %72, 1
  %74 = sext i32 %73 to i64
  %75 = getelementptr inbounds [100000 x %struct.student], [100000 x %struct.student]* %1, i64 0, i64 %74
  %76 = getelementptr inbounds %struct.student, %struct.student* %75, i32 0, i32 1
  store i32 %71, i32* %76, align 4
  %77 = load i32, i32* %4, align 4
  %78 = sext i32 %77 to i64
  %79 = getelementptr inbounds [100000 x %struct.student], [100000 x %struct.student]* %1, i64 0, i64 %78
  %80 = getelementptr inbounds %struct.student, %struct.student* %79, i32 0, i32 0
  %81 = load i32, i32* %80, align 8
  store i32 %81, i32* %8, align 4
  %82 = load i32, i32* %4, align 4
  %83 = sub nsw i32 %82, 1
  %84 = sext i32 %83 to i64
  %85 = getelementptr inbounds [100000 x %struct.student], [100000 x %struct.student]* %1, i64 0, i64 %84
  %86 = getelementptr inbounds %struct.student, %struct.student* %85, i32 0, i32 0
  %87 = load i32, i32* %86, align 8
  %88 = load i32, i32* %4, align 4
  %89 = sext i32 %88 to i64
  %90 = getelementptr inbounds [100000 x %struct.student], [100000 x %struct.student]* %1, i64 0, i64 %89
  %91 = getelementptr inbounds %struct.student, %struct.student* %90, i32 0, i32 0
  store i32 %87, i32* %91, align 8
  %92 = load i32, i32* %8, align 4
  %93 = load i32, i32* %4, align 4
  %94 = sub nsw i32 %93, 1
  %95 = sext i32 %94 to i64
  %96 = getelementptr inbounds [100000 x %struct.student], [100000 x %struct.student]* %1, i64 0, i64 %95
  %97 = getelementptr inbounds %struct.student, %struct.student* %96, i32 0, i32 0
  store i32 %92, i32* %97, align 8
  br label %98

98:                                               ; preds = %55, %42
  br label %99

99:                                               ; preds = %98
  %100 = load i32, i32* %4, align 4
  %101 = add nsw i32 %100, -1
  store i32 %101, i32* %4, align 4
  br label %39

102:                                              ; preds = %39
  br label %103

103:                                              ; preds = %102
  %104 = load i32, i32* %3, align 4
  %105 = add nsw i32 %104, 1
  store i32 %105, i32* %3, align 4
  br label %31

106:                                              ; preds = %31
  store i32 0, i32* %3, align 4
  br label %107

107:                                              ; preds = %122, %106
  %108 = load i32, i32* %3, align 4
  %109 = icmp slt i32 %108, 3
  br i1 %109, label %110, label %125

110:                                              ; preds = %107
  %111 = load i32, i32* %3, align 4
  %112 = sext i32 %111 to i64
  %113 = getelementptr inbounds [100000 x %struct.student], [100000 x %struct.student]* %1, i64 0, i64 %112
  %114 = getelementptr inbounds %struct.student, %struct.student* %113, i32 0, i32 0
  %115 = load i32, i32* %114, align 8
  %116 = load i32, i32* %3, align 4
  %117 = sext i32 %116 to i64
  %118 = getelementptr inbounds [100000 x %struct.student], [100000 x %struct.student]* %1, i64 0, i64 %117
  %119 = getelementptr inbounds %struct.student, %struct.student* %118, i32 0, i32 1
  %120 = load i32, i32* %119, align 4
  %121 = call i32 (i8*, ...) @printf(i8* getelementptr inbounds ([7 x i8], [7 x i8]* @.str.2, i64 0, i64 0), i32 %115, i32 %120)
  br label %122

122:                                              ; preds = %110
  %123 = load i32, i32* %3, align 4
  %124 = add nsw i32 %123, 1
  store i32 %124, i32* %3, align 4
  br label %107

125:                                              ; preds = %107
  ret void
}

declare dso_local i32 @__isoc99_scanf(i8*, ...) #1

declare dso_local i32 @printf(i8*, ...) #1


!llvm.module.flags = !{!0}
!llvm.ident = !{!1}

!0 = !{i32 1, !"wchar_size", i32 4}
!1 = !{!"clang version 10.0.0-4ubuntu1 "}
